; Function Attrs: mustprogress uwtable
define void @_ZN2cv9videostab14StabilizerBase16postProcessFrameERKNS_3MatE(ptr dead_on_unwind noalias nonnull writable sret(%"class.cv::Mat") align 8 %0, ptr noundef nonnull readonly align 8 captures(none) dereferenceable(688) %1, ptr noundef nonnull align 8 dereferenceable(96) %2) unnamed_addr #3 align 2 {
  %4 = alloca %"class.cv::Rect_", align 4
  %5 = getelementptr inbounds nuw i8, ptr %1, i64 108
  %6 = load float, ptr %5, align 4, !tbaa !103
  %7 = getelementptr inbounds nuw i8, ptr %2, i64 12
  %8 = load i32, ptr %7, align 4, !tbaa !146
  %9 = sitofp i32 %8 to float
  %10 = fmul float %6, %9
  %11 = tail call float @llvm.floor.f32(float %10)
  %12 = fptosi float %11 to i32
  %13 = getelementptr inbounds nuw i8, ptr %2, i64 8
  %14 = load i32, ptr %13, align 8, !tbaa !147
  %15 = sitofp i32 %14 to float
  %16 = fmul float %6, %15
  %17 = tail call float @llvm.floor.f32(float %16)
  %18 = fptosi float %17 to i32
  call void @llvm.lifetime.start.p0(i64 16, ptr nonnull %4) #23
  %19 = shl nsw i32 %12, 1
  %20 = sub nsw i32 %8, %19
  %21 = shl nsw i32 %18, 1
  %22 = sub nsw i32 %14, %21
  store i32 %12, ptr %4, align 4, !tbaa !134
  %23 = getelementptr inbounds nuw i8, ptr %4, i64 4
  store i32 %18, ptr %23, align 4, !tbaa !136
  %24 = getelementptr inbounds nuw i8, ptr %4, i64 8
  store i32 %20, ptr %24, align 4, !tbaa !137
  %25 = getelementptr inbounds nuw i8, ptr %4, i64 12
  store i32 %22, ptr %25, align 4, !tbaa !138
  call void @_ZN2cv3MatC1ERKS0_RKNS_5Rect_IiEE(ptr noundef nonnull align 8 dereferenceable(96) %0, ptr noundef nonnull align 8 dereferenceable(96) %2, ptr noundef nonnull align 4 dereferenceable(16) %4)
  call void @llvm.lifetime.end.p0(i64 16, ptr nonnull %4) #23
  ret void
}